target datalayout = "e-m:e-p270:32:32-p271:32:32-p272:64:64-i64:64-i128:128-f80:128-n8:16:32:64-S128"
target triple = "x86_64-pc-linux-gnu"

; Function Attrs: alwaysinline nounwind willreturn memory(none) uwtable
define internal i32 @avpriv_mirror(i32 noundef %0, i32 noundef %1) #3 {
  %3 = alloca i32, align 4
  %4 = alloca i32, align 4
  %5 = alloca i32, align 4
  store i32 %0, ptr %4, align 4, !tbaa !13
  store i32 %1, ptr %5, align 4, !tbaa !13
  %6 = load i32, ptr %5, align 4, !tbaa !13
  %7 = icmp ne i32 %6, 0
  br i1 %7, label %9, label %8

8:                                                ; preds = %2
  store i32 0, ptr %3, align 4
  br label %27

9:                                                ; preds = %2
  br label %10

10:                                               ; preds = %24, %9
  %11 = load i32, ptr %4, align 4, !tbaa !13
  %12 = load i32, ptr %5, align 4, !tbaa !13
  %13 = icmp ugt i32 %11, %12
  br i1 %13, label %14, label %25

14:                                               ; preds = %10
  %15 = load i32, ptr %4, align 4, !tbaa !13
  %16 = sub nsw i32 0, %15
  store i32 %16, ptr %4, align 4, !tbaa !13
  %17 = load i32, ptr %4, align 4, !tbaa !13
  %18 = icmp slt i32 %17, 0
  br i1 %18, label %19, label %24

19:                                               ; preds = %14
  %20 = load i32, ptr %5, align 4, !tbaa !13
  %21 = mul nsw i32 2, %20
  %22 = load i32, ptr %4, align 4, !tbaa !13
  %23 = add nsw i32 %22, %21
  store i32 %23, ptr %4, align 4, !tbaa !13
  br label %24

24:                                               ; preds = %19, %14
  br label %10, !llvm.loop !20

25:                                               ; preds = %10
  %26 = load i32, ptr %4, align 4, !tbaa !13
  store i32 %26, ptr %3, align 4
  br label %27

27:                                               ; preds = %25, %8
  %28 = load i32, ptr %3, align 4
  ret i32 %28
}

; Function Attrs: alwaysinline nounwind willreturn memory(none) uwtable
define internal float @av_clipf_c(float noundef %0, float noundef %1, float noundef %2) #3 {
  %4 = alloca float, align 4
  %5 = alloca float, align 4
  %6 = alloca float, align 4
  store float %0, ptr %4, align 4, !tbaa !4
  store float %1, ptr %5, align 4, !tbaa !4
  store float %2, ptr %6, align 4, !tbaa !4
  %7 = load float, ptr %4, align 4, !tbaa !4
  %8 = load float, ptr %5, align 4, !tbaa !4
  %9 = fcmp nsz ogt float %7, %8
  br i1 %9, label %10, label %12

10:                                               ; preds = %3
  %11 = load float, ptr %4, align 4, !tbaa !4
  br label %14

12:                                               ; preds = %3
  %13 = load float, ptr %5, align 4, !tbaa !4
  br label %14

14:                                               ; preds = %12, %10
  %15 = phi nsz float [ %11, %10 ], [ %13, %12 ]
  %16 = load float, ptr %6, align 4, !tbaa !4
  %17 = fcmp nsz ogt float %15, %16
  br i1 %17, label %18, label %20

18:                                               ; preds = %14
  %19 = load float, ptr %6, align 4, !tbaa !4
  br label %30

20:                                               ; preds = %14
  %21 = load float, ptr %4, align 4, !tbaa !4
  %22 = load float, ptr %5, align 4, !tbaa !4
  %23 = fcmp nsz ogt float %21, %22
  br i1 %23, label %24, label %26

24:                                               ; preds = %20
  %25 = load float, ptr %4, align 4, !tbaa !4
  br label %28

26:                                               ; preds = %20
  %27 = load float, ptr %5, align 4, !tbaa !4
  br label %28

28:                                               ; preds = %26, %24
  %29 = phi nsz float [ %25, %24 ], [ %27, %26 ]
  br label %30

30:                                               ; preds = %28, %18
  %31 = phi nsz float [ %19, %18 ], [ %29, %28 ]
  ret float %31
}

; Function Attrs: nounwind uwtable
define i32 @ff_affine_transform(ptr noundef %0, ptr noundef %1, i32 noundef %2, i32 noundef %3, i32 noundef %4, i32 noundef %5, ptr noundef %6, i32 noundef %7, i32 noundef %8) #0 {
  %10 = alloca i32, align 4
  %11 = alloca ptr, align 8
  %12 = alloca ptr, align 8
  %13 = alloca i32, align 4
  %14 = alloca i32, align 4
  %15 = alloca i32, align 4
  %16 = alloca i32, align 4
  %17 = alloca ptr, align 8
  %18 = alloca i32, align 4
  %19 = alloca i32, align 4
  %20 = alloca i32, align 4
  %21 = alloca i32, align 4
  %22 = alloca float, align 4
  %23 = alloca float, align 4
  %24 = alloca i8, align 1
  %25 = alloca ptr, align 8
  %26 = alloca i32, align 4
  store ptr %0, ptr %11, align 8, !tbaa !11
  store ptr %1, ptr %12, align 8, !tbaa !11
  store i32 %2, ptr %13, align 4, !tbaa !13
  store i32 %3, ptr %14, align 4, !tbaa !13
  store i32 %4, ptr %15, align 4, !tbaa !13
  store i32 %5, ptr %16, align 4, !tbaa !13
  store ptr %6, ptr %17, align 8, !tbaa !8
  store i32 %7, ptr %18, align 4, !tbaa !13
  store i32 %8, ptr %19, align 4, !tbaa !13
  call void @llvm.lifetime.start.p0(i64 4, ptr %20) #4
  call void @llvm.lifetime.start.p0(i64 4, ptr %21) #4
  call void @llvm.lifetime.start.p0(i64 4, ptr %22) #4
  call void @llvm.lifetime.start.p0(i64 4, ptr %23) #4
  call void @llvm.lifetime.start.p0(i64 1, ptr %24) #4
  store i8 0, ptr %24, align 1, !tbaa !15
  call void @llvm.lifetime.start.p0(i64 8, ptr %25) #4
  store ptr null, ptr %25, align 8, !tbaa !16
  %27 = load i32, ptr %18, align 4, !tbaa !13
  switch i32 %27, label %31 [
    i32 0, label %28
    i32 1, label %29
    i32 2, label %30
  ]

28:                                               ; preds = %9
  store ptr @interpolate_nearest, ptr %25, align 8, !tbaa !16
  br label %32

29:                                               ; preds = %9
  store ptr @interpolate_bilinear, ptr %25, align 8, !tbaa !16
  br label %32

30:                                               ; preds = %9
  store ptr @interpolate_biquadratic, ptr %25, align 8, !tbaa !16
  br label %32

31:                                               ; preds = %9
  store i32 -22, ptr %10, align 4
  store i32 1, ptr %26, align 4
  br label %158

32:                                               ; preds = %30, %29, %28
  store i32 0, ptr %21, align 4, !tbaa !13
  br label %33

33:                                               ; preds = %154, %32
  %34 = load i32, ptr %21, align 4, !tbaa !13
  %35 = load i32, ptr %16, align 4, !tbaa !13
  %36 = icmp slt i32 %34, %35
  br i1 %36, label %37, label %157

37:                                               ; preds = %33
  store i32 0, ptr %20, align 4, !tbaa !13
  br label %38

38:                                               ; preds = %150, %37
  %39 = load i32, ptr %20, align 4, !tbaa !13
  %40 = load i32, ptr %15, align 4, !tbaa !13
  %41 = icmp slt i32 %39, %40
  br i1 %41, label %42, label %153

42:                                               ; preds = %38
  %43 = load i32, ptr %20, align 4, !tbaa !13
  %44 = sitofp i32 %43 to float
  %45 = load ptr, ptr %17, align 8, !tbaa !8
  %46 = getelementptr inbounds float, ptr %45, i64 0
  %47 = load float, ptr %46, align 4, !tbaa !4
  %48 = load i32, ptr %21, align 4, !tbaa !13
  %49 = sitofp i32 %48 to float
  %50 = load ptr, ptr %17, align 8, !tbaa !8
  %51 = getelementptr inbounds float, ptr %50, i64 1
  %52 = load float, ptr %51, align 4, !tbaa !4
  %53 = fmul nsz float %49, %52
  %54 = call nsz float @llvm.fmuladd.f32(float %44, float %47, float %53)
  %55 = load ptr, ptr %17, align 8, !tbaa !8
  %56 = getelementptr inbounds float, ptr %55, i64 2
  %57 = load float, ptr %56, align 4, !tbaa !4
  %58 = fadd nsz float %54, %57
  store float %58, ptr %22, align 4, !tbaa !4
  %59 = load i32, ptr %20, align 4, !tbaa !13
  %60 = sitofp i32 %59 to float
  %61 = load ptr, ptr %17, align 8, !tbaa !8
  %62 = getelementptr inbounds float, ptr %61, i64 3
  %63 = load float, ptr %62, align 4, !tbaa !4
  %64 = load i32, ptr %21, align 4, !tbaa !13
  %65 = sitofp i32 %64 to float
  %66 = load ptr, ptr %17, align 8, !tbaa !8
  %67 = getelementptr inbounds float, ptr %66, i64 4
  %68 = load float, ptr %67, align 4, !tbaa !4
  %69 = fmul nsz float %65, %68
  %70 = call nsz float @llvm.fmuladd.f32(float %60, float %63, float %69)
  %71 = load ptr, ptr %17, align 8, !tbaa !8
  %72 = getelementptr inbounds float, ptr %71, i64 5
  %73 = load float, ptr %72, align 4, !tbaa !4
  %74 = fadd nsz float %70, %73
  store float %74, ptr %23, align 4, !tbaa !4
  %75 = load i32, ptr %19, align 4, !tbaa !13
  switch i32 %75, label %132 [
    i32 1, label %76
    i32 2, label %86
    i32 3, label %108
  ]

76:                                               ; preds = %42
  %77 = load ptr, ptr %11, align 8, !tbaa !11
  %78 = load i32, ptr %21, align 4, !tbaa !13
  %79 = load i32, ptr %13, align 4, !tbaa !13
  %80 = mul nsw i32 %78, %79
  %81 = load i32, ptr %20, align 4, !tbaa !13
  %82 = add nsw i32 %80, %81
  %83 = sext i32 %82 to i64
  %84 = getelementptr inbounds i8, ptr %77, i64 %83
  %85 = load i8, ptr %84, align 1, !tbaa !15
  store i8 %85, ptr %24, align 1, !tbaa !15
  br label %132

86:                                               ; preds = %42
  %87 = load float, ptr %23, align 4, !tbaa !4
  %88 = load i32, ptr %16, align 4, !tbaa !13
  %89 = sub nsw i32 %88, 1
  %90 = sitofp i32 %89 to float
  %91 = call nsz float @av_clipf_c(float noundef %87, float noundef 0.000000e+00, float noundef %90) #5
  store float %91, ptr %23, align 4, !tbaa !4
  %92 = load float, ptr %22, align 4, !tbaa !4
  %93 = load i32, ptr %15, align 4, !tbaa !13
  %94 = sub nsw i32 %93, 1
  %95 = sitofp i32 %94 to float
  %96 = call nsz float @av_clipf_c(float noundef %92, float noundef 0.000000e+00, float noundef %95) #5
  store float %96, ptr %22, align 4, !tbaa !4
  %97 = load ptr, ptr %11, align 8, !tbaa !11
  %98 = load float, ptr %23, align 4, !tbaa !4
  %99 = fptosi float %98 to i32
  %100 = load i32, ptr %13, align 4, !tbaa !13
  %101 = mul nsw i32 %99, %100
  %102 = load float, ptr %22, align 4, !tbaa !4
  %103 = fptosi float %102 to i32
  %104 = add nsw i32 %101, %103
  %105 = sext i32 %104 to i64
  %106 = getelementptr inbounds i8, ptr %97, i64 %105
  %107 = load i8, ptr %106, align 1, !tbaa !15
  store i8 %107, ptr %24, align 1, !tbaa !15
  br label %132

108:                                              ; preds = %42
  %109 = load float, ptr %22, align 4, !tbaa !4
  %110 = fptosi float %109 to i32
  %111 = load i32, ptr %15, align 4, !tbaa !13
  %112 = sub nsw i32 %111, 1
  %113 = call i32 @avpriv_mirror(i32 noundef %110, i32 noundef %112) #5
  %114 = sitofp i32 %113 to float
  store float %114, ptr %22, align 4, !tbaa !4
  %115 = load float, ptr %23, align 4, !tbaa !4
  %116 = fptosi float %115 to i32
  %117 = load i32, ptr %16, align 4, !tbaa !13
  %118 = sub nsw i32 %117, 1
  %119 = call i32 @avpriv_mirror(i32 noundef %116, i32 noundef %118) #5
  %120 = sitofp i32 %119 to float
  store float %120, ptr %23, align 4, !tbaa !4
  %121 = load ptr, ptr %11, align 8, !tbaa !11
  %122 = load float, ptr %23, align 4, !tbaa !4
  %123 = fptosi float %122 to i32
  %124 = load i32, ptr %13, align 4, !tbaa !13
  %125 = mul nsw i32 %123, %124
  %126 = load float, ptr %22, align 4, !tbaa !4
  %127 = fptosi float %126 to i32
  %128 = add nsw i32 %125, %127
  %129 = sext i32 %128 to i64
  %130 = getelementptr inbounds i8, ptr %121, i64 %129
  %131 = load i8, ptr %130, align 1, !tbaa !15
  store i8 %131, ptr %24, align 1, !tbaa !15
  br label %132

132:                                              ; preds = %108, %42, %86, %76
  %133 = load ptr, ptr %25, align 8, !tbaa !16
  %134 = load float, ptr %22, align 4, !tbaa !4
  %135 = load float, ptr %23, align 4, !tbaa !4
  %136 = load ptr, ptr %11, align 8, !tbaa !11
  %137 = load i32, ptr %15, align 4, !tbaa !13
  %138 = load i32, ptr %16, align 4, !tbaa !13
  %139 = load i32, ptr %13, align 4, !tbaa !13
  %140 = load i8, ptr %24, align 1, !tbaa !15
  %141 = call zeroext i8 %133(float noundef %134, float noundef %135, ptr noundef %136, i32 noundef %137, i32 noundef %138, i32 noundef %139, i8 noundef zeroext %140)
  %142 = load ptr, ptr %12, align 8, !tbaa !11
  %143 = load i32, ptr %21, align 4, !tbaa !13
  %144 = load i32, ptr %14, align 4, !tbaa !13
  %145 = mul nsw i32 %143, %144
  %146 = load i32, ptr %20, align 4, !tbaa !13
  %147 = add nsw i32 %145, %146
  %148 = sext i32 %147 to i64
  %149 = getelementptr inbounds i8, ptr %142, i64 %148
  store i8 %141, ptr %149, align 1, !tbaa !15
  br label %150

150:                                              ; preds = %132
  %151 = load i32, ptr %20, align 4, !tbaa !13
  %152 = add nsw i32 %151, 1
  store i32 %152, ptr %20, align 4, !tbaa !13
  br label %38, !llvm.loop !17

153:                                              ; preds = %38
  br label %154

154:                                              ; preds = %153
  %155 = load i32, ptr %21, align 4, !tbaa !13
  %156 = add nsw i32 %155, 1
  store i32 %156, ptr %21, align 4, !tbaa !13
  br label %33, !llvm.loop !19

157:                                              ; preds = %33
  store i32 0, ptr %10, align 4
  store i32 1, ptr %26, align 4
  br label %158

158:                                              ; preds = %157, %31
  call void @llvm.lifetime.end.p0(i64 8, ptr %25) #4
  call void @llvm.lifetime.end.p0(i64 1, ptr %24) #4
  call void @llvm.lifetime.end.p0(i64 4, ptr %23) #4
  call void @llvm.lifetime.end.p0(i64 4, ptr %22) #4
  call void @llvm.lifetime.end.p0(i64 4, ptr %21) #4
  call void @llvm.lifetime.end.p0(i64 4, ptr %20) #4
  %159 = load i32, ptr %10, align 4
  ret i32 %159
}