; Function Attrs: nounwind uwtable
define range(i32 -22, 1) i32 @ff_affine_transform(ptr noundef %0, ptr noundef writeonly captures(none) %1, i32 noundef %2, i32 noundef %3, i32 noundef %4, i32 noundef %5, ptr noundef readonly captures(none) %6, i32 noundef %7, i32 noundef %8) local_unnamed_addr #2 {
  %10 = icmp ult i32 %7, 3
  br i1 %10, label %switch.lookup, label %.loopexit

switch.lookup:                                    ; preds = %9
  %11 = zext nneg i32 %7 to i64
  %switch.gep = getelementptr inbounds nuw [3 x ptr], ptr @switch.table.ff_affine_transform, i64 0, i64 %11
  %switch.load = load ptr, ptr %switch.gep, align 8
  %12 = icmp sgt i32 %5, 0
  br i1 %12, label %.preheader66.lr.ph, label %.loopexit

.preheader66.lr.ph:                               ; preds = %switch.lookup
  %13 = icmp sgt i32 %4, 0
  %14 = getelementptr inbounds nuw i8, ptr %6, i64 4
  %15 = getelementptr inbounds nuw i8, ptr %6, i64 8
  %16 = getelementptr inbounds nuw i8, ptr %6, i64 12
  %17 = getelementptr inbounds nuw i8, ptr %6, i64 16
  %18 = getelementptr inbounds nuw i8, ptr %6, i64 20
  %19 = add nsw i32 %4, -1
  %.not.i = icmp eq i32 %19, 0
  %20 = shl nsw i32 %19, 1
  %21 = add nsw i32 %5, -1
  %.not.i59 = icmp eq i32 %21, 0
  %22 = shl nuw nsw i32 %21, 1
  %23 = uitofp nneg i32 %21 to float
  %24 = sitofp i32 %19 to float
  br i1 %13, label %.preheader66.us.preheader, label %.loopexit

.preheader66.us.preheader:                        ; preds = %.preheader66.lr.ph
  %25 = sext i32 %2 to i64
  %26 = sext i32 %3 to i64
  %wide.trip.count80 = zext nneg i32 %5 to i64
  %wide.trip.count = zext nneg i32 %4 to i64
  br label %.preheader66.us

.preheader66.us:                                  ; preds = %.preheader66.us.preheader, %._crit_edge.us
  %indvars.iv78 = phi i64 [ 0, %.preheader66.us.preheader ], [ %indvars.iv.next79, %._crit_edge.us ]
  %.05076.us = phi i8 [ 0, %.preheader66.us.preheader ], [ %.2.us, %._crit_edge.us ]
  %27 = trunc nuw nsw i64 %indvars.iv78 to i32
  %28 = uitofp nneg i32 %27 to float
  %29 = mul nsw i64 %indvars.iv78, %25
  %30 = mul nsw i64 %indvars.iv78, %26
  %invariant.gep = getelementptr i8, ptr %0, i64 %29
  %invariant.gep82 = getelementptr i8, ptr %1, i64 %30
  br label %31

31:                                               ; preds = %.preheader66.us, %76
  %indvars.iv = phi i64 [ 0, %.preheader66.us ], [ %indvars.iv.next, %76 ]
  %.172.us = phi i8 [ %.05076.us, %.preheader66.us ], [ %.2.us, %76 ]
  %32 = trunc nuw nsw i64 %indvars.iv to i32
  %33 = uitofp nneg i32 %32 to float
  %34 = load float, ptr %6, align 4, !tbaa !4
  %35 = load float, ptr %14, align 4, !tbaa !4
  %36 = fmul nsz float %35, %28
  %37 = tail call nsz float @llvm.fmuladd.f32(float %33, float %34, float %36)
  %38 = load float, ptr %15, align 4, !tbaa !4
  %39 = fadd nsz float %38, %37
  %40 = load float, ptr %16, align 4, !tbaa !4
  %41 = load float, ptr %17, align 4, !tbaa !4
  %42 = fmul nsz float %41, %28
  %43 = tail call nsz float @llvm.fmuladd.f32(float %33, float %40, float %42)
  %44 = load float, ptr %18, align 4, !tbaa !4
  %45 = fadd nsz float %44, %43
  switch i32 %8, label %76 [
    i32 1, label %74
    i32 2, label %60
    i32 3, label %46
  ]

46:                                               ; preds = %31
  br i1 %.not.i, label %avpriv_mirror.exit.us, label %.preheader65.us

.lr.ph.us:                                        ; preds = %.preheader65.us, %.lr.ph.us
  %.09.i67.us = phi i32 [ %.1.i.us, %.lr.ph.us ], [ %80, %.preheader65.us ]
  %47 = icmp sgt i32 %.09.i67.us, 0
  %spec.select.i.us = select i1 %47, i32 %20, i32 0
  %.1.i.us = sub nsw i32 %spec.select.i.us, %.09.i67.us
  %48 = icmp ugt i32 %.1.i.us, %19
  br i1 %48, label %.lr.ph.us, label %avpriv_mirror.exit.us, !llvm.loop !8

avpriv_mirror.exit.us:                            ; preds = %.lr.ph.us, %.preheader65.us, %46
  %.0.i.us = phi i32 [ 0, %46 ], [ %80, %.preheader65.us ], [ %.1.i.us, %.lr.ph.us ]
  %49 = sitofp i32 %.0.i.us to float
  br i1 %.not.i59, label %avpriv_mirror.exit64.us, label %.preheader.us

.lr.ph69.us:                                      ; preds = %.preheader.us, %.lr.ph69.us
  %.09.i6068.us = phi i32 [ %.1.i63.us, %.lr.ph69.us ], [ %78, %.preheader.us ]
  %50 = icmp sgt i32 %.09.i6068.us, 0
  %spec.select.i62.us = select i1 %50, i32 %22, i32 0
  %.1.i63.us = sub nsw i32 %spec.select.i62.us, %.09.i6068.us
  %51 = icmp ugt i32 %.1.i63.us, %21
  br i1 %51, label %.lr.ph69.us, label %avpriv_mirror.exit64.us, !llvm.loop !8

avpriv_mirror.exit64.us:                          ; preds = %.lr.ph69.us, %.preheader.us, %avpriv_mirror.exit.us
  %.0.i61.us = phi i32 [ 0, %avpriv_mirror.exit.us ], [ %78, %.preheader.us ], [ %.1.i63.us, %.lr.ph69.us ]
  %52 = sitofp i32 %.0.i61.us to float
  %53 = fptosi float %52 to i32
  %54 = mul nsw i32 %2, %53
  %55 = fptosi float %49 to i32
  %56 = add nsw i32 %54, %55
  %57 = sext i32 %56 to i64
  %58 = getelementptr inbounds i8, ptr %0, i64 %57
  %59 = load i8, ptr %58, align 1, !tbaa !10
  br label %76

60:                                               ; preds = %31
  %61 = fcmp nsz ogt float %45, 0.000000e+00
  %62 = select nsz i1 %61, float %45, float 0.000000e+00
  %63 = fcmp nsz ogt float %62, %23
  %..i.us = select nsz i1 %63, float %23, float %62
  %64 = fcmp nsz ogt float %39, 0.000000e+00
  %65 = select nsz i1 %64, float %39, float 0.000000e+00
  %66 = fcmp nsz ogt float %65, %24
  %..i58.us = select nsz i1 %66, float %24, float %65
  %67 = fptosi float %..i.us to i32
  %68 = mul nsw i32 %2, %67
  %69 = fptosi float %..i58.us to i32
  %70 = add nsw i32 %68, %69
  %71 = sext i32 %70 to i64
  %72 = getelementptr inbounds i8, ptr %0, i64 %71
  %73 = load i8, ptr %72, align 1, !tbaa !10
  br label %76

74:                                               ; preds = %31
  %gep = getelementptr i8, ptr %invariant.gep, i64 %indvars.iv
  %75 = load i8, ptr %gep, align 1, !tbaa !10
  br label %76

76:                                               ; preds = %74, %60, %avpriv_mirror.exit64.us, %31
  %.052.us = phi nsz float [ %39, %31 ], [ %49, %avpriv_mirror.exit64.us ], [ %..i58.us, %60 ], [ %39, %74 ]
  %.051.us = phi nsz float [ %45, %31 ], [ %52, %avpriv_mirror.exit64.us ], [ %..i.us, %60 ], [ %45, %74 ]
  %.2.us = phi i8 [ %.172.us, %31 ], [ %59, %avpriv_mirror.exit64.us ], [ %73, %60 ], [ %75, %74 ]
  %77 = tail call zeroext i8 %switch.load(float noundef %.052.us, float noundef %.051.us, ptr noundef %0, i32 noundef %4, i32 noundef %5, i32 noundef %2, i8 noundef zeroext %.2.us) #4, !callees !11
  %gep83 = getelementptr i8, ptr %invariant.gep82, i64 %indvars.iv
  store i8 %77, ptr %gep83, align 1, !tbaa !10
  %indvars.iv.next = add nuw nsw i64 %indvars.iv, 1
  %exitcond.not = icmp eq i64 %indvars.iv.next, %wide.trip.count
  br i1 %exitcond.not, label %._crit_edge.us, label %31, !llvm.loop !12

.preheader.us:                                    ; preds = %avpriv_mirror.exit.us
  %78 = fptosi float %45 to i32
  %79 = icmp ult i32 %21, %78
  br i1 %79, label %.lr.ph69.us, label %avpriv_mirror.exit64.us

.preheader65.us:                                  ; preds = %46
  %80 = fptosi float %39 to i32
  %81 = icmp ult i32 %19, %80
  br i1 %81, label %.lr.ph.us, label %avpriv_mirror.exit.us

._crit_edge.us:                                   ; preds = %76
  %indvars.iv.next79 = add nuw nsw i64 %indvars.iv78, 1
  %exitcond81.not = icmp eq i64 %indvars.iv.next79, %wide.trip.count80
  br i1 %exitcond81.not, label %.loopexit, label %.preheader66.us, !llvm.loop !13

.loopexit:                                        ; preds = %._crit_edge.us, %9, %.preheader66.lr.ph, %switch.lookup
  %.055 = phi i32 [ -22, %9 ], [ 0, %switch.lookup ], [ 0, %.preheader66.lr.ph ], [ 0, %._crit_edge.us ]
  ret i32 %.055
}